
main.exe:     file format elf32-i386


Disassembly of section .init:

08048634 <_init>:
 8048634:	55                   	push   %ebp
 8048635:	89 e5                	mov    %esp,%ebp
 8048637:	53                   	push   %ebx
 8048638:	83 ec 04             	sub    $0x4,%esp
 804863b:	e8 00 00 00 00       	call   8048640 <_init+0xc>
 8048640:	5b                   	pop    %ebx
 8048641:	81 c3 b4 29 00 00    	add    $0x29b4,%ebx
 8048647:	8b 93 fc ff ff ff    	mov    -0x4(%ebx),%edx
 804864d:	85 d2                	test   %edx,%edx
 804864f:	74 05                	je     8048656 <_init+0x22>
 8048651:	e8 5e 00 00 00       	call   80486b4 <__gmon_start__@plt>
 8048656:	e8 f5 01 00 00       	call   8048850 <frame_dummy>
 804865b:	e8 90 0b 00 00       	call   80491f0 <__do_global_ctors_aux>
 8048660:	58                   	pop    %eax
 8048661:	5b                   	pop    %ebx
 8048662:	c9                   	leave  
 8048663:	c3                   	ret    

Disassembly of section .plt:

08048664 <newwin@plt-0x10>:
 8048664:	ff 35 f8 af 04 08    	pushl  0x804aff8
 804866a:	ff 25 fc af 04 08    	jmp    *0x804affc
 8048670:	00 00                	add    %al,(%eax)
	...

08048674 <newwin@plt>:
 8048674:	ff 25 00 b0 04 08    	jmp    *0x804b000
 804867a:	68 00 00 00 00       	push   $0x0
 804867f:	e9 e0 ff ff ff       	jmp    8048664 <_init+0x30>

08048684 <waddch@plt>:
 8048684:	ff 25 04 b0 04 08    	jmp    *0x804b004
 804868a:	68 08 00 00 00       	push   $0x8
 804868f:	e9 d0 ff ff ff       	jmp    8048664 <_init+0x30>

08048694 <wmove@plt>:
 8048694:	ff 25 08 b0 04 08    	jmp    *0x804b008
 804869a:	68 10 00 00 00       	push   $0x10
 804869f:	e9 c0 ff ff ff       	jmp    8048664 <_init+0x30>

080486a4 <keypad@plt>:
 80486a4:	ff 25 0c b0 04 08    	jmp    *0x804b00c
 80486aa:	68 18 00 00 00       	push   $0x18
 80486af:	e9 b0 ff ff ff       	jmp    8048664 <_init+0x30>

080486b4 <__gmon_start__@plt>:
 80486b4:	ff 25 10 b0 04 08    	jmp    *0x804b010
 80486ba:	68 20 00 00 00       	push   $0x20
 80486bf:	e9 a0 ff ff ff       	jmp    8048664 <_init+0x30>

080486c4 <endwin@plt>:
 80486c4:	ff 25 14 b0 04 08    	jmp    *0x804b014
 80486ca:	68 28 00 00 00       	push   $0x28
 80486cf:	e9 90 ff ff ff       	jmp    8048664 <_init+0x30>

080486d4 <nodelay@plt>:
 80486d4:	ff 25 18 b0 04 08    	jmp    *0x804b018
 80486da:	68 30 00 00 00       	push   $0x30
 80486df:	e9 80 ff ff ff       	jmp    8048664 <_init+0x30>

080486e4 <__libc_start_main@plt>:
 80486e4:	ff 25 1c b0 04 08    	jmp    *0x804b01c
 80486ea:	68 38 00 00 00       	push   $0x38
 80486ef:	e9 70 ff ff ff       	jmp    8048664 <_init+0x30>

080486f4 <delwin@plt>:
 80486f4:	ff 25 20 b0 04 08    	jmp    *0x804b020
 80486fa:	68 40 00 00 00       	push   $0x40
 80486ff:	e9 60 ff ff ff       	jmp    8048664 <_init+0x30>

08048704 <initscr@plt>:
 8048704:	ff 25 24 b0 04 08    	jmp    *0x804b024
 804870a:	68 48 00 00 00       	push   $0x48
 804870f:	e9 50 ff ff ff       	jmp    8048664 <_init+0x30>

08048714 <wrefresh@plt>:
 8048714:	ff 25 28 b0 04 08    	jmp    *0x804b028
 804871a:	68 50 00 00 00       	push   $0x50
 804871f:	e9 40 ff ff ff       	jmp    8048664 <_init+0x30>

08048724 <init_pair@plt>:
 8048724:	ff 25 2c b0 04 08    	jmp    *0x804b02c
 804872a:	68 58 00 00 00       	push   $0x58
 804872f:	e9 30 ff ff ff       	jmp    8048664 <_init+0x30>

08048734 <mvwprintw@plt>:
 8048734:	ff 25 30 b0 04 08    	jmp    *0x804b030
 804873a:	68 60 00 00 00       	push   $0x60
 804873f:	e9 20 ff ff ff       	jmp    8048664 <_init+0x30>

08048744 <cbreak@plt>:
 8048744:	ff 25 34 b0 04 08    	jmp    *0x804b034
 804874a:	68 68 00 00 00       	push   $0x68
 804874f:	e9 10 ff ff ff       	jmp    8048664 <_init+0x30>

08048754 <start_color@plt>:
 8048754:	ff 25 38 b0 04 08    	jmp    *0x804b038
 804875a:	68 70 00 00 00       	push   $0x70
 804875f:	e9 00 ff ff ff       	jmp    8048664 <_init+0x30>

08048764 <wgetch@plt>:
 8048764:	ff 25 3c b0 04 08    	jmp    *0x804b03c
 804876a:	68 78 00 00 00       	push   $0x78
 804876f:	e9 f0 fe ff ff       	jmp    8048664 <_init+0x30>

08048774 <fwrite@plt>:
 8048774:	ff 25 40 b0 04 08    	jmp    *0x804b040
 804877a:	68 80 00 00 00       	push   $0x80
 804877f:	e9 e0 fe ff ff       	jmp    8048664 <_init+0x30>

08048784 <has_colors@plt>:
 8048784:	ff 25 44 b0 04 08    	jmp    *0x804b044
 804878a:	68 88 00 00 00       	push   $0x88
 804878f:	e9 d0 fe ff ff       	jmp    8048664 <_init+0x30>

08048794 <noecho@plt>:
 8048794:	ff 25 48 b0 04 08    	jmp    *0x804b048
 804879a:	68 90 00 00 00       	push   $0x90
 804879f:	e9 c0 fe ff ff       	jmp    8048664 <_init+0x30>

080487a4 <exit@plt>:
 80487a4:	ff 25 4c b0 04 08    	jmp    *0x804b04c
 80487aa:	68 98 00 00 00       	push   $0x98
 80487af:	e9 b0 fe ff ff       	jmp    8048664 <_init+0x30>

Disassembly of section .text:

080487c0 <_start>:
 80487c0:	31 ed                	xor    %ebp,%ebp
 80487c2:	5e                   	pop    %esi
 80487c3:	89 e1                	mov    %esp,%ecx
 80487c5:	83 e4 f0             	and    $0xfffffff0,%esp
 80487c8:	50                   	push   %eax
 80487c9:	54                   	push   %esp
 80487ca:	52                   	push   %edx
 80487cb:	68 80 91 04 08       	push   $0x8049180
 80487d0:	68 90 91 04 08       	push   $0x8049190
 80487d5:	51                   	push   %ecx
 80487d6:	56                   	push   %esi
 80487d7:	68 49 8e 04 08       	push   $0x8048e49
 80487dc:	e8 03 ff ff ff       	call   80486e4 <__libc_start_main@plt>
 80487e1:	f4                   	hlt    
 80487e2:	90                   	nop
 80487e3:	90                   	nop
 80487e4:	90                   	nop
 80487e5:	90                   	nop
 80487e6:	90                   	nop
 80487e7:	90                   	nop
 80487e8:	90                   	nop
 80487e9:	90                   	nop
 80487ea:	90                   	nop
 80487eb:	90                   	nop
 80487ec:	90                   	nop
 80487ed:	90                   	nop
 80487ee:	90                   	nop
 80487ef:	90                   	nop

080487f0 <__do_global_dtors_aux>:
 80487f0:	55                   	push   %ebp
 80487f1:	89 e5                	mov    %esp,%ebp
 80487f3:	53                   	push   %ebx
 80487f4:	83 ec 04             	sub    $0x4,%esp
 80487f7:	80 3d 68 b7 04 08 00 	cmpb   $0x0,0x804b768
 80487fe:	75 3f                	jne    804883f <__do_global_dtors_aux+0x4f>
 8048800:	a1 6c b7 04 08       	mov    0x804b76c,%eax
 8048805:	bb 18 af 04 08       	mov    $0x804af18,%ebx
 804880a:	81 eb 14 af 04 08    	sub    $0x804af14,%ebx
 8048810:	c1 fb 02             	sar    $0x2,%ebx
 8048813:	83 eb 01             	sub    $0x1,%ebx
 8048816:	39 d8                	cmp    %ebx,%eax
 8048818:	73 1e                	jae    8048838 <__do_global_dtors_aux+0x48>
 804881a:	8d b6 00 00 00 00    	lea    0x0(%esi),%esi
 8048820:	83 c0 01             	add    $0x1,%eax
 8048823:	a3 6c b7 04 08       	mov    %eax,0x804b76c
 8048828:	ff 14 85 14 af 04 08 	call   *0x804af14(,%eax,4)
 804882f:	a1 6c b7 04 08       	mov    0x804b76c,%eax
 8048834:	39 d8                	cmp    %ebx,%eax
 8048836:	72 e8                	jb     8048820 <__do_global_dtors_aux+0x30>
 8048838:	c6 05 68 b7 04 08 01 	movb   $0x1,0x804b768
 804883f:	83 c4 04             	add    $0x4,%esp
 8048842:	5b                   	pop    %ebx
 8048843:	5d                   	pop    %ebp
 8048844:	c3                   	ret    
 8048845:	8d 74 26 00          	lea    0x0(%esi,%eiz,1),%esi
 8048849:	8d bc 27 00 00 00 00 	lea    0x0(%edi,%eiz,1),%edi

08048850 <frame_dummy>:
 8048850:	55                   	push   %ebp
 8048851:	89 e5                	mov    %esp,%ebp
 8048853:	83 ec 18             	sub    $0x18,%esp
 8048856:	a1 1c af 04 08       	mov    0x804af1c,%eax
 804885b:	85 c0                	test   %eax,%eax
 804885d:	74 12                	je     8048871 <frame_dummy+0x21>
 804885f:	b8 00 00 00 00       	mov    $0x0,%eax
 8048864:	85 c0                	test   %eax,%eax
 8048866:	74 09                	je     8048871 <frame_dummy+0x21>
 8048868:	c7 04 24 1c af 04 08 	movl   $0x804af1c,(%esp)
 804886f:	ff d0                	call   *%eax
 8048871:	c9                   	leave  
 8048872:	c3                   	ret    
 8048873:	90                   	nop

08048874 <put_a_block>:
 8048874:	55                   	push   %ebp
 8048875:	89 e5                	mov    %esp,%ebp
 8048877:	53                   	push   %ebx
 8048878:	56                   	push   %esi
 8048879:	57                   	push   %edi
 804887a:	ff 75 08             	pushl  0x8(%ebp)
 804887d:	e8 64 00 00 00       	call   80488e6 <choose_a_block_from_block_table_to_temp_block>
 8048882:	83 c4 04             	add    $0x4,%esp
 8048885:	b9 07 00 00 00       	mov    $0x7,%ecx
 804888a:	bf 03 00 00 00       	mov    $0x3,%edi
 804888f:	8d 74 bd 00          	lea    0x0(%ebp,%edi,4),%esi
 8048893:	bf 10 b7 04 08       	mov    $0x804b710,%edi
 8048898:	66 8b 07             	mov    (%edi),%ax
 804889b:	83 c7 10             	add    $0x10,%edi
 804889e:	88 27                	mov    %ah,(%edi)
 80488a0:	83 c7 01             	add    $0x1,%edi
 80488a3:	fc                   	cld    

080488a4 <copy_color_loop>:
 80488a4:	8b 06                	mov    (%esi),%eax
 80488a6:	aa                   	stos   %al,%es:(%edi)
 80488a7:	83 c6 04             	add    $0x4,%esi
 80488aa:	e2 f8                	loop   80488a4 <copy_color_loop>
 80488ac:	c7 05 2c b7 04 08 01 	movl   $0x101,0x804b72c
 80488b3:	01 00 00 
 80488b6:	e8 29 01 00 00       	call   80489e4 <is_conflict>
 80488bb:	83 f8 01             	cmp    $0x1,%eax
 80488be:	74 18                	je     80488d8 <you_can_not_put_a_block_because_of_conflict>
 80488c0:	a1 2c b7 04 08       	mov    0x804b72c,%eax
 80488c5:	a3 28 b7 04 08       	mov    %eax,0x804b728
 80488ca:	e8 47 00 00 00       	call   8048916 <copy_temp_block_to_current_block>
 80488cf:	eb 00                	jmp    80488d1 <success_to_put_a_block>

080488d1 <success_to_put_a_block>:
 80488d1:	b8 01 00 00 00       	mov    $0x1,%eax
 80488d6:	eb 07                	jmp    80488df <put_a_block_return>

080488d8 <you_can_not_put_a_block_because_of_conflict>:
 80488d8:	b8 00 00 00 00       	mov    $0x0,%eax
 80488dd:	eb 00                	jmp    80488df <put_a_block_return>

080488df <put_a_block_return>:
 80488df:	5f                   	pop    %edi
 80488e0:	5e                   	pop    %esi
 80488e1:	5b                   	pop    %ebx
 80488e2:	89 ec                	mov    %ebp,%esp
 80488e4:	5d                   	pop    %ebp
 80488e5:	c3                   	ret    

080488e6 <choose_a_block_from_block_table_to_temp_block>:
 80488e6:	55                   	push   %ebp
 80488e7:	89 e5                	mov    %esp,%ebp
 80488e9:	53                   	push   %ebx
 80488ea:	56                   	push   %esi
 80488eb:	57                   	push   %edi
 80488ec:	bf 00 00 00 00       	mov    $0x0,%edi
 80488f1:	be 60 b6 04 08       	mov    $0x804b660,%esi
 80488f6:	31 c0                	xor    %eax,%eax
 80488f8:	8b 45 08             	mov    0x8(%ebp),%eax
 80488fb:	fe c8                	dec    %al
 80488fd:	b3 10                	mov    $0x10,%bl
 80488ff:	f6 e3                	mul    %bl
 8048901:	01 c6                	add    %eax,%esi
 8048903:	bf 10 b7 04 08       	mov    $0x804b710,%edi
 8048908:	b9 10 00 00 00       	mov    $0x10,%ecx
 804890d:	f3 a4                	rep movsb %ds:(%esi),%es:(%edi)
 804890f:	5f                   	pop    %edi
 8048910:	5e                   	pop    %esi
 8048911:	5b                   	pop    %ebx
 8048912:	89 ec                	mov    %ebp,%esp
 8048914:	5d                   	pop    %ebp
 8048915:	c3                   	ret    

08048916 <copy_temp_block_to_current_block>:
 8048916:	55                   	push   %ebp
 8048917:	89 e5                	mov    %esp,%ebp
 8048919:	53                   	push   %ebx
 804891a:	56                   	push   %esi
 804891b:	57                   	push   %edi
 804891c:	bf f0 b6 04 08       	mov    $0x804b6f0,%edi
 8048921:	be 10 b7 04 08       	mov    $0x804b710,%esi
 8048926:	b9 18 00 00 00       	mov    $0x18,%ecx
 804892b:	fc                   	cld    
 804892c:	f3 a4                	rep movsb %ds:(%esi),%es:(%edi)
 804892e:	5f                   	pop    %edi
 804892f:	5e                   	pop    %esi
 8048930:	5b                   	pop    %ebx
 8048931:	89 ec                	mov    %ebp,%esp
 8048933:	5d                   	pop    %ebp
 8048934:	c3                   	ret    

08048935 <copy_current_block_to_temp_block>:
 8048935:	55                   	push   %ebp
 8048936:	89 e5                	mov    %esp,%ebp
 8048938:	53                   	push   %ebx
 8048939:	56                   	push   %esi
 804893a:	57                   	push   %edi
 804893b:	be f0 b6 04 08       	mov    $0x804b6f0,%esi
 8048940:	bf 10 b7 04 08       	mov    $0x804b710,%edi
 8048945:	b9 18 00 00 00       	mov    $0x18,%ecx
 804894a:	fc                   	cld    
 804894b:	f3 a4                	rep movsb %ds:(%esi),%es:(%edi)
 804894d:	5f                   	pop    %edi
 804894e:	5e                   	pop    %esi
 804894f:	5b                   	pop    %ebx
 8048950:	89 ec                	mov    %ebp,%esp
 8048952:	5d                   	pop    %ebp
 8048953:	c3                   	ret    

08048954 <put_a_block_on_table>:
 8048954:	55                   	push   %ebp
 8048955:	89 e5                	mov    %esp,%ebp
 8048957:	53                   	push   %ebx
 8048958:	56                   	push   %esi
 8048959:	57                   	push   %edi
 804895a:	a1 28 b7 04 08       	mov    0x804b728,%eax
 804895f:	bb f0 b6 04 08       	mov    $0x804b6f0,%ebx
 8048964:	89 de                	mov    %ebx,%esi
 8048966:	83 c6 11             	add    $0x11,%esi
 8048969:	31 c9                	xor    %ecx,%ecx
 804896b:	83 c3 01             	add    $0x1,%ebx
 804896e:	8a 0b                	mov    (%ebx),%cl
 8048970:	83 c3 01             	add    $0x1,%ebx

08048973 <loop_put_a_cell>:
 8048973:	66 8b 13             	mov    (%ebx),%dx
 8048976:	00 e6                	add    %ah,%dh
 8048978:	00 c2                	add    %al,%dl
 804897a:	80 fe 00             	cmp    $0x0,%dh
 804897d:	7c 2a                	jl     80489a9 <loop_put_a_cell_next>
 804897f:	50                   	push   %eax
 8048980:	51                   	push   %ecx
 8048981:	52                   	push   %edx
 8048982:	31 ff                	xor    %edi,%edi
 8048984:	0f b6 fa             	movzbl %dl,%edi
 8048987:	57                   	push   %edi
 8048988:	0f b6 fe             	movzbl %dh,%edi
 804898b:	57                   	push   %edi
 804898c:	e8 25 00 00 00       	call   80489b6 <get_offset_on_table_at>
 8048991:	83 c4 08             	add    $0x8,%esp
 8048994:	05 60 b0 04 08       	add    $0x804b060,%eax
 8048999:	c7 00 00 00 01 00    	movl   $0x10000,(%eax)
 804899f:	83 c0 03             	add    $0x3,%eax
 80489a2:	8a 0e                	mov    (%esi),%cl
 80489a4:	88 08                	mov    %cl,(%eax)
 80489a6:	5a                   	pop    %edx
 80489a7:	59                   	pop    %ecx
 80489a8:	58                   	pop    %eax

080489a9 <loop_put_a_cell_next>:
 80489a9:	83 c3 02             	add    $0x2,%ebx
 80489ac:	46                   	inc    %esi
 80489ad:	e2 c4                	loop   8048973 <loop_put_a_cell>

080489af <put_a_block_on_table_return>:
 80489af:	5f                   	pop    %edi
 80489b0:	5e                   	pop    %esi
 80489b1:	5b                   	pop    %ebx
 80489b2:	89 ec                	mov    %ebp,%esp
 80489b4:	5d                   	pop    %ebp
 80489b5:	c3                   	ret    

080489b6 <get_offset_on_table_at>:
 80489b6:	55                   	push   %ebp
 80489b7:	89 e5                	mov    %esp,%ebp
 80489b9:	53                   	push   %ebx
 80489ba:	56                   	push   %esi
 80489bb:	57                   	push   %edi
 80489bc:	8b 75 08             	mov    0x8(%ebp),%esi
 80489bf:	8b 7d 0c             	mov    0xc(%ebp),%edi
 80489c2:	89 f2                	mov    %esi,%edx
 80489c4:	89 fb                	mov    %edi,%ebx
 80489c6:	31 c0                	xor    %eax,%eax
 80489c8:	88 d0                	mov    %dl,%al
 80489ca:	b5 10                	mov    $0x10,%ch
 80489cc:	f6 e5                	mul    %ch
 80489ce:	66 01 d8             	add    %bx,%ax
 80489d1:	31 d2                	xor    %edx,%edx
 80489d3:	66 b9 04 00          	mov    $0x4,%cx
 80489d7:	66 f7 e1             	mul    %cx
 80489da:	09 d0                	or     %edx,%eax
 80489dc:	5f                   	pop    %edi
 80489dd:	5e                   	pop    %esi
 80489de:	5b                   	pop    %ebx
 80489df:	89 ec                	mov    %ebp,%esp
 80489e1:	5d                   	pop    %ebp
 80489e2:	c3                   	ret    
 80489e3:	90                   	nop

080489e4 <is_conflict>:
 80489e4:	55                   	push   %ebp
 80489e5:	89 e5                	mov    %esp,%ebp
 80489e7:	53                   	push   %ebx
 80489e8:	56                   	push   %esi
 80489e9:	57                   	push   %edi
 80489ea:	c6 05 30 b7 04 08 00 	movb   $0x0,0x804b730
 80489f1:	c6 05 31 b7 04 08 00 	movb   $0x0,0x804b731
 80489f8:	c6 05 32 b7 04 08 00 	movb   $0x0,0x804b732
 80489ff:	c6 05 33 b7 04 08 00 	movb   $0x0,0x804b733
 8048a06:	be 10 b7 04 08       	mov    $0x804b710,%esi
 8048a0b:	bf 00 00 00 00       	mov    $0x0,%edi
 8048a10:	66 8b 04 3e          	mov    (%esi,%edi,1),%ax
 8048a14:	80 fc 00             	cmp    $0x0,%ah
 8048a17:	0f 84 9c 00 00 00    	je     8048ab9 <temp_block_length_is_0>
 8048a1d:	66 c1 e8 08          	shr    $0x8,%ax
 8048a21:	25 ff 00 00 00       	and    $0xff,%eax
 8048a26:	89 c1                	mov    %eax,%ecx
 8048a28:	be 60 b0 04 08       	mov    $0x804b060,%esi
 8048a2d:	bf 01 00 00 00       	mov    $0x1,%edi
 8048a32:	8b 1d 2c b7 04 08    	mov    0x804b72c,%ebx
 8048a38:	88 3d 30 b7 04 08    	mov    %bh,0x804b730
 8048a3e:	88 1d 31 b7 04 08    	mov    %bl,0x804b731

08048a44 <check_conflict>:
 8048a44:	bb 10 b7 04 08       	mov    $0x804b710,%ebx
 8048a49:	83 f9 00             	cmp    $0x0,%ecx
 8048a4c:	74 64                	je     8048ab2 <check_all_but_not_conflict>
 8048a4e:	66 8b 04 7b          	mov    (%ebx,%edi,2),%ax
 8048a52:	88 25 32 b7 04 08    	mov    %ah,0x804b732
 8048a58:	a2 33 b7 04 08       	mov    %al,0x804b733
 8048a5d:	8a 25 30 b7 04 08    	mov    0x804b730,%ah
 8048a63:	a0 31 b7 04 08       	mov    0x804b731,%al
 8048a68:	02 25 32 b7 04 08    	add    0x804b732,%ah
 8048a6e:	02 05 33 b7 04 08    	add    0x804b733,%al
 8048a74:	31 db                	xor    %ebx,%ebx
 8048a76:	31 d2                	xor    %edx,%edx
 8048a78:	88 c2                	mov    %al,%dl
 8048a7a:	88 e3                	mov    %ah,%bl
 8048a7c:	80 fb 00             	cmp    $0x0,%bl
 8048a7f:	7c 1f                	jl     8048aa0 <check_conflict_next>
 8048a81:	80 fb 17             	cmp    $0x17,%bl
 8048a84:	7f 1e                	jg     8048aa4 <conflict_true>
 8048a86:	80 fa 00             	cmp    $0x0,%dl
 8048a89:	7c 19                	jl     8048aa4 <conflict_true>
 8048a8b:	80 fa 0f             	cmp    $0xf,%dl
 8048a8e:	7f 14                	jg     8048aa4 <conflict_true>
 8048a90:	31 c0                	xor    %eax,%eax
 8048a92:	b0 10                	mov    $0x10,%al
 8048a94:	f6 e3                	mul    %bl
 8048a96:	01 d0                	add    %edx,%eax
 8048a98:	8b 04 86             	mov    (%esi,%eax,4),%eax
 8048a9b:	80 fc 01             	cmp    $0x1,%ah
 8048a9e:	74 04                	je     8048aa4 <conflict_true>

08048aa0 <check_conflict_next>:
 8048aa0:	49                   	dec    %ecx
 8048aa1:	47                   	inc    %edi
 8048aa2:	eb a0                	jmp    8048a44 <check_conflict>

08048aa4 <conflict_true>:
 8048aa4:	b8 01 00 00 00       	mov    $0x1,%eax
 8048aa9:	eb 15                	jmp    8048ac0 <is_conflict_return>

08048aab <conflict_false>:
 8048aab:	b8 00 00 00 00       	mov    $0x0,%eax
 8048ab0:	eb 0e                	jmp    8048ac0 <is_conflict_return>

08048ab2 <check_all_but_not_conflict>:
 8048ab2:	b8 00 00 00 00       	mov    $0x0,%eax
 8048ab7:	eb 07                	jmp    8048ac0 <is_conflict_return>

08048ab9 <temp_block_length_is_0>:
 8048ab9:	b8 00 00 00 00       	mov    $0x0,%eax
 8048abe:	eb 00                	jmp    8048ac0 <is_conflict_return>

08048ac0 <is_conflict_return>:
 8048ac0:	5f                   	pop    %edi
 8048ac1:	5e                   	pop    %esi
 8048ac2:	5b                   	pop    %ebx
 8048ac3:	89 ec                	mov    %ebp,%esp
 8048ac5:	5d                   	pop    %ebp
 8048ac6:	c3                   	ret    
 8048ac7:	90                   	nop

08048ac8 <rotate>:
 8048ac8:	55                   	push   %ebp
 8048ac9:	89 e5                	mov    %esp,%ebp
 8048acb:	53                   	push   %ebx
 8048acc:	56                   	push   %esi
 8048acd:	57                   	push   %edi
 8048ace:	e8 62 fe ff ff       	call   8048935 <copy_current_block_to_temp_block>
 8048ad3:	be 10 b7 04 08       	mov    $0x804b710,%esi
 8048ad8:	66 8b 06             	mov    (%esi),%ax
 8048adb:	88 e3                	mov    %ah,%bl
 8048add:	0f b6 db             	movzbl %bl,%ebx
 8048ae0:	89 d9                	mov    %ebx,%ecx
 8048ae2:	83 c6 02             	add    $0x2,%esi

08048ae5 <rotate_coordinate>:
 8048ae5:	66 8b 1e             	mov    (%esi),%bx
 8048ae8:	b0 00                	mov    $0x0,%al
 8048aea:	28 f8                	sub    %bh,%al
 8048aec:	88 dc                	mov    %bl,%ah
 8048aee:	66 89 06             	mov    %ax,(%esi)
 8048af1:	83 c6 02             	add    $0x2,%esi
 8048af4:	e2 ef                	loop   8048ae5 <rotate_coordinate>
 8048af6:	e8 e9 fe ff ff       	call   80489e4 <is_conflict>
 8048afb:	83 f8 01             	cmp    $0x1,%eax
 8048afe:	74 0e                	je     8048b0e <can_not_rotate>
 8048b00:	e8 11 fe ff ff       	call   8048916 <copy_temp_block_to_current_block>
 8048b05:	eb 00                	jmp    8048b07 <can_rotate>

08048b07 <can_rotate>:
 8048b07:	b8 01 00 00 00       	mov    $0x1,%eax
 8048b0c:	eb 07                	jmp    8048b15 <rotate_return>

08048b0e <can_not_rotate>:
 8048b0e:	b8 00 00 00 00       	mov    $0x0,%eax
 8048b13:	eb 00                	jmp    8048b15 <rotate_return>

08048b15 <rotate_return>:
 8048b15:	5f                   	pop    %edi
 8048b16:	5e                   	pop    %esi
 8048b17:	5b                   	pop    %ebx
 8048b18:	89 ec                	mov    %ebp,%esp
 8048b1a:	5d                   	pop    %ebp
 8048b1b:	c3                   	ret    

08048b1c <down>:
 8048b1c:	55                   	push   %ebp
 8048b1d:	89 e5                	mov    %esp,%ebp
 8048b1f:	53                   	push   %ebx
 8048b20:	56                   	push   %esi
 8048b21:	57                   	push   %edi
 8048b22:	a1 28 b7 04 08       	mov    0x804b728,%eax
 8048b27:	05 00 01 00 00       	add    $0x100,%eax
 8048b2c:	a3 2c b7 04 08       	mov    %eax,0x804b72c
 8048b31:	e8 ff fd ff ff       	call   8048935 <copy_current_block_to_temp_block>
 8048b36:	e8 a9 fe ff ff       	call   80489e4 <is_conflict>
 8048b3b:	83 f8 01             	cmp    $0x1,%eax
 8048b3e:	74 11                	je     8048b51 <down_false>
 8048b40:	a1 2c b7 04 08       	mov    0x804b72c,%eax
 8048b45:	a3 28 b7 04 08       	mov    %eax,0x804b728

08048b4a <down_true>:
 8048b4a:	b8 01 00 00 00       	mov    $0x1,%eax
 8048b4f:	eb 07                	jmp    8048b58 <down_return>

08048b51 <down_false>:
 8048b51:	b8 00 00 00 00       	mov    $0x0,%eax
 8048b56:	eb 00                	jmp    8048b58 <down_return>

08048b58 <down_return>:
 8048b58:	5f                   	pop    %edi
 8048b59:	5e                   	pop    %esi
 8048b5a:	5b                   	pop    %ebx
 8048b5b:	89 ec                	mov    %ebp,%esp
 8048b5d:	5d                   	pop    %ebp
 8048b5e:	c3                   	ret    
 8048b5f:	90                   	nop

08048b60 <move_to_left_or_right>:
 8048b60:	55                   	push   %ebp
 8048b61:	89 e5                	mov    %esp,%ebp
 8048b63:	53                   	push   %ebx
 8048b64:	56                   	push   %esi
 8048b65:	57                   	push   %edi
 8048b66:	8b 45 08             	mov    0x8(%ebp),%eax
 8048b69:	83 f8 01             	cmp    $0x1,%eax
 8048b6c:	74 05                	je     8048b73 <move_to_left>
 8048b6e:	83 f8 02             	cmp    $0x2,%eax
 8048b71:	74 0a                	je     8048b7d <move_to_right>

08048b73 <move_to_left>:
 8048b73:	a1 28 b7 04 08       	mov    0x804b728,%eax
 8048b78:	83 c0 ff             	add    $0xffffffff,%eax
 8048b7b:	eb 0a                	jmp    8048b87 <next>

08048b7d <move_to_right>:
 8048b7d:	a1 28 b7 04 08       	mov    0x804b728,%eax
 8048b82:	83 c0 01             	add    $0x1,%eax
 8048b85:	eb 00                	jmp    8048b87 <next>

08048b87 <next>:
 8048b87:	a3 2c b7 04 08       	mov    %eax,0x804b72c
 8048b8c:	e8 a4 fd ff ff       	call   8048935 <copy_current_block_to_temp_block>
 8048b91:	e8 4e fe ff ff       	call   80489e4 <is_conflict>
 8048b96:	83 f8 01             	cmp    $0x1,%eax
 8048b99:	74 11                	je     8048bac <move_to_left_or_right_false>
 8048b9b:	a1 2c b7 04 08       	mov    0x804b72c,%eax
 8048ba0:	a3 28 b7 04 08       	mov    %eax,0x804b728

08048ba5 <move_to_left_or_right_true>:
 8048ba5:	b8 01 00 00 00       	mov    $0x1,%eax
 8048baa:	eb 07                	jmp    8048bb3 <move_to_left_or_right_return>

08048bac <move_to_left_or_right_false>:
 8048bac:	b8 00 00 00 00       	mov    $0x0,%eax
 8048bb1:	eb 00                	jmp    8048bb3 <move_to_left_or_right_return>

08048bb3 <move_to_left_or_right_return>:
 8048bb3:	5f                   	pop    %edi
 8048bb4:	5e                   	pop    %esi
 8048bb5:	5b                   	pop    %ebx
 8048bb6:	89 ec                	mov    %ebp,%esp
 8048bb8:	5d                   	pop    %ebp
 8048bb9:	c3                   	ret    
 8048bba:	90                   	nop
 8048bbb:	90                   	nop

08048bbc <delete_complete_lines>:
 8048bbc:	55                   	push   %ebp
 8048bbd:	89 e5                	mov    %esp,%ebp
 8048bbf:	53                   	push   %ebx
 8048bc0:	56                   	push   %esi
 8048bc1:	57                   	push   %edi
 8048bc2:	b9 00 00 00 00       	mov    $0x0,%ecx

08048bc7 <loop_find_a_line_to_delete>:
 8048bc7:	e8 92 00 00 00       	call   8048c5e <find_a_complete_line>
 8048bcc:	83 f8 00             	cmp    $0x0,%eax
 8048bcf:	7c 0c                	jl     8048bdd <delete_complete_lines_return>
 8048bd1:	50                   	push   %eax
 8048bd2:	e8 0f 00 00 00       	call   8048be6 <delete_a_line_at>
 8048bd7:	83 c4 04             	add    $0x4,%esp
 8048bda:	41                   	inc    %ecx
 8048bdb:	eb ea                	jmp    8048bc7 <loop_find_a_line_to_delete>

08048bdd <delete_complete_lines_return>:
 8048bdd:	89 c8                	mov    %ecx,%eax
 8048bdf:	5f                   	pop    %edi
 8048be0:	5e                   	pop    %esi
 8048be1:	5b                   	pop    %ebx
 8048be2:	89 ec                	mov    %ebp,%esp
 8048be4:	5d                   	pop    %ebp
 8048be5:	c3                   	ret    

08048be6 <delete_a_line_at>:
 8048be6:	55                   	push   %ebp
 8048be7:	89 e5                	mov    %esp,%ebp
 8048be9:	53                   	push   %ebx
 8048bea:	56                   	push   %esi
 8048beb:	57                   	push   %edi
 8048bec:	8b 45 08             	mov    0x8(%ebp),%eax
 8048bef:	83 f8 00             	cmp    $0x0,%eax
 8048bf2:	74 50                	je     8048c44 <delete_first_line>
 8048bf4:	89 c2                	mov    %eax,%edx
 8048bf6:	52                   	push   %edx
 8048bf7:	6a 00                	push   $0x0
 8048bf9:	52                   	push   %edx
 8048bfa:	e8 b7 fd ff ff       	call   80489b6 <get_offset_on_table_at>
 8048bff:	83 c4 08             	add    $0x8,%esp
 8048c02:	5a                   	pop    %edx
 8048c03:	89 c7                	mov    %eax,%edi
 8048c05:	81 c7 60 b0 04 08    	add    $0x804b060,%edi
 8048c0b:	83 ea 01             	sub    $0x1,%edx
 8048c0e:	6a 00                	push   $0x0
 8048c10:	52                   	push   %edx
 8048c11:	e8 a0 fd ff ff       	call   80489b6 <get_offset_on_table_at>
 8048c16:	83 c4 08             	add    $0x8,%esp
 8048c19:	89 c6                	mov    %eax,%esi
 8048c1b:	81 c6 60 b0 04 08    	add    $0x804b060,%esi
 8048c21:	8b 4d 08             	mov    0x8(%ebp),%ecx
 8048c24:	83 c1 01             	add    $0x1,%ecx
 8048c27:	fc                   	cld    

08048c28 <loop_copy_line_to_line>:
 8048c28:	57                   	push   %edi
 8048c29:	56                   	push   %esi
 8048c2a:	51                   	push   %ecx
 8048c2b:	b9 10 00 00 00       	mov    $0x10,%ecx
 8048c30:	f3 a5                	rep movsl %ds:(%esi),%es:(%edi)
 8048c32:	59                   	pop    %ecx
 8048c33:	5e                   	pop    %esi
 8048c34:	5f                   	pop    %edi
 8048c35:	b3 10                	mov    $0x10,%bl
 8048c37:	b8 04 00 00 00       	mov    $0x4,%eax
 8048c3c:	f6 e3                	mul    %bl
 8048c3e:	29 c6                	sub    %eax,%esi
 8048c40:	29 c7                	sub    %eax,%edi
 8048c42:	e2 e4                	loop   8048c28 <loop_copy_line_to_line>

08048c44 <delete_first_line>:
 8048c44:	b8 00 00 00 00       	mov    $0x0,%eax
 8048c49:	b9 10 00 00 00       	mov    $0x10,%ecx
 8048c4e:	bf 60 b0 04 08       	mov    $0x804b060,%edi
 8048c53:	f3 ab                	rep stos %eax,%es:(%edi)
 8048c55:	eb 00                	jmp    8048c57 <delete_a_line_at_return>

08048c57 <delete_a_line_at_return>:
 8048c57:	5f                   	pop    %edi
 8048c58:	5e                   	pop    %esi
 8048c59:	5b                   	pop    %ebx
 8048c5a:	89 ec                	mov    %ebp,%esp
 8048c5c:	5d                   	pop    %ebp
 8048c5d:	c3                   	ret    

08048c5e <find_a_complete_line>:
 8048c5e:	55                   	push   %ebp
 8048c5f:	89 e5                	mov    %esp,%ebp
 8048c61:	53                   	push   %ebx
 8048c62:	56                   	push   %esi
 8048c63:	57                   	push   %edi
 8048c64:	31 c9                	xor    %ecx,%ecx
 8048c66:	b1 18                	mov    $0x18,%cl
 8048c68:	bf 00 00 00 00       	mov    $0x0,%edi

08048c6d <loop_row>:
 8048c6d:	89 cb                	mov    %ecx,%ebx
 8048c6f:	83 eb 01             	sub    $0x1,%ebx
 8048c72:	51                   	push   %ecx
 8048c73:	6a 00                	push   $0x0
 8048c75:	53                   	push   %ebx
 8048c76:	e8 3b fd ff ff       	call   80489b6 <get_offset_on_table_at>
 8048c7b:	83 c4 08             	add    $0x8,%esp
 8048c7e:	59                   	pop    %ecx
 8048c7f:	89 c6                	mov    %eax,%esi
 8048c81:	81 c6 60 b0 04 08    	add    $0x804b060,%esi
 8048c87:	bb 10 00 00 00       	mov    $0x10,%ebx

08048c8c <loop_col>:
 8048c8c:	83 fb 00             	cmp    $0x0,%ebx
 8048c8f:	74 19                	je     8048caa <loop_row_next>
 8048c91:	8b 16                	mov    (%esi),%edx
 8048c93:	81 e2 00 00 01 00    	and    $0x10000,%edx
 8048c99:	83 fa 00             	cmp    $0x0,%edx
 8048c9c:	74 0c                	je     8048caa <loop_row_next>
 8048c9e:	47                   	inc    %edi
 8048c9f:	83 ff 10             	cmp    $0x10,%edi
 8048ca2:	74 0c                	je     8048cb0 <found>
 8048ca4:	4b                   	dec    %ebx
 8048ca5:	83 c6 04             	add    $0x4,%esi
 8048ca8:	eb e2                	jmp    8048c8c <loop_col>

08048caa <loop_row_next>:
 8048caa:	31 ff                	xor    %edi,%edi
 8048cac:	e2 bf                	loop   8048c6d <loop_row>
 8048cae:	eb 05                	jmp    8048cb5 <not_a_line_complete>

08048cb0 <found>:
 8048cb0:	89 c8                	mov    %ecx,%eax
 8048cb2:	48                   	dec    %eax
 8048cb3:	eb 07                	jmp    8048cbc <find_a_complete_line_return>

08048cb5 <not_a_line_complete>:
 8048cb5:	b8 ff ff ff ff       	mov    $0xffffffff,%eax
 8048cba:	eb 00                	jmp    8048cbc <find_a_complete_line_return>

08048cbc <find_a_complete_line_return>:
 8048cbc:	5f                   	pop    %edi
 8048cbd:	5e                   	pop    %esi
 8048cbe:	5b                   	pop    %ebx
 8048cbf:	89 ec                	mov    %ebp,%esp
 8048cc1:	5d                   	pop    %ebp
 8048cc2:	c3                   	ret    
 8048cc3:	90                   	nop

08048cc4 <clear_a_block_on_table>:
 8048cc4:	55                   	push   %ebp
 8048cc5:	89 e5                	mov    %esp,%ebp
 8048cc7:	53                   	push   %ebx
 8048cc8:	56                   	push   %esi
 8048cc9:	57                   	push   %edi
 8048cca:	a1 28 b7 04 08       	mov    0x804b728,%eax
 8048ccf:	bb f0 b6 04 08       	mov    $0x804b6f0,%ebx
 8048cd4:	31 c9                	xor    %ecx,%ecx
 8048cd6:	83 c3 01             	add    $0x1,%ebx
 8048cd9:	8a 0b                	mov    (%ebx),%cl
 8048cdb:	83 c3 01             	add    $0x1,%ebx

08048cde <loop_clear_a_cell>:
 8048cde:	66 8b 13             	mov    (%ebx),%dx
 8048ce1:	00 e6                	add    %ah,%dh
 8048ce3:	00 c2                	add    %al,%dl
 8048ce5:	80 fe 00             	cmp    $0x0,%dh
 8048ce8:	7c 28                	jl     8048d12 <loop_clear_a_cell_next>
 8048cea:	80 fa 00             	cmp    $0x0,%dl
 8048ced:	7c 23                	jl     8048d12 <loop_clear_a_cell_next>
 8048cef:	50                   	push   %eax
 8048cf0:	51                   	push   %ecx
 8048cf1:	52                   	push   %edx
 8048cf2:	31 ff                	xor    %edi,%edi
 8048cf4:	0f b6 fa             	movzbl %dl,%edi
 8048cf7:	57                   	push   %edi
 8048cf8:	0f b6 fe             	movzbl %dh,%edi
 8048cfb:	57                   	push   %edi
 8048cfc:	e8 b5 fc ff ff       	call   80489b6 <get_offset_on_table_at>
 8048d01:	83 c4 08             	add    $0x8,%esp
 8048d04:	05 60 b0 04 08       	add    $0x804b060,%eax
 8048d09:	c7 00 00 00 00 00    	movl   $0x0,(%eax)
 8048d0f:	5a                   	pop    %edx
 8048d10:	59                   	pop    %ecx
 8048d11:	58                   	pop    %eax

08048d12 <loop_clear_a_cell_next>:
 8048d12:	83 c3 02             	add    $0x2,%ebx
 8048d15:	e2 c7                	loop   8048cde <loop_clear_a_cell>

08048d17 <clear_a_block_on_table_return>:
 8048d17:	5f                   	pop    %edi
 8048d18:	5e                   	pop    %esi
 8048d19:	5b                   	pop    %ebx
 8048d1a:	89 ec                	mov    %ebp,%esp
 8048d1c:	5d                   	pop    %ebp
 8048d1d:	c3                   	ret    
 8048d1e:	90                   	nop
 8048d1f:	90                   	nop

08048d20 <new_window_at>:
 8048d20:	55                   	push   %ebp
 8048d21:	89 e5                	mov    %esp,%ebp
 8048d23:	83 ec 38             	sub    $0x38,%esp
 8048d26:	8b 45 08             	mov    0x8(%ebp),%eax
 8048d29:	89 44 24 0c          	mov    %eax,0xc(%esp)
 8048d2d:	8b 45 0c             	mov    0xc(%ebp),%eax
 8048d30:	89 44 24 08          	mov    %eax,0x8(%esp)
 8048d34:	c7 44 24 04 20 00 00 	movl   $0x20,0x4(%esp)
 8048d3b:	00 
 8048d3c:	c7 04 24 18 00 00 00 	movl   $0x18,(%esp)
 8048d43:	e8 2c f9 ff ff       	call   8048674 <newwin@plt>
 8048d48:	89 45 f4             	mov    %eax,-0xc(%ebp)
 8048d4b:	c7 45 f0 00 00 00 00 	movl   $0x0,-0x10(%ebp)
 8048d52:	e9 a2 00 00 00       	jmp    8048df9 <new_window_at+0xd9>
 8048d57:	c7 45 ec 00 00 00 00 	movl   $0x0,-0x14(%ebp)
 8048d5e:	e9 88 00 00 00       	jmp    8048deb <new_window_at+0xcb>
 8048d63:	8b 45 f0             	mov    -0x10(%ebp),%eax
 8048d66:	c1 e0 04             	shl    $0x4,%eax
 8048d69:	03 45 ec             	add    -0x14(%ebp),%eax
 8048d6c:	8b 04 85 60 b0 04 08 	mov    0x804b060(,%eax,4),%eax
 8048d73:	89 45 e8             	mov    %eax,-0x18(%ebp)
 8048d76:	8b 45 e8             	mov    -0x18(%ebp),%eax
 8048d79:	c1 e8 18             	shr    $0x18,%eax
 8048d7c:	89 45 e4             	mov    %eax,-0x1c(%ebp)
 8048d7f:	83 7d f4 00          	cmpl   $0x0,-0xc(%ebp)
 8048d83:	74 19                	je     8048d9e <new_window_at+0x7e>
 8048d85:	83 7d e4 00          	cmpl   $0x0,-0x1c(%ebp)
 8048d89:	74 08                	je     8048d93 <new_window_at+0x73>
 8048d8b:	8b 45 e4             	mov    -0x1c(%ebp),%eax
 8048d8e:	c1 e0 08             	shl    $0x8,%eax
 8048d91:	eb 05                	jmp    8048d98 <new_window_at+0x78>
 8048d93:	b8 00 07 00 00       	mov    $0x700,%eax
 8048d98:	8b 55 f4             	mov    -0xc(%ebp),%edx
 8048d9b:	89 42 10             	mov    %eax,0x10(%edx)
 8048d9e:	8b 45 ec             	mov    -0x14(%ebp),%eax
 8048da1:	01 c0                	add    %eax,%eax
 8048da3:	c7 44 24 0c 40 92 04 	movl   $0x8049240,0xc(%esp)
 8048daa:	08 
 8048dab:	89 44 24 08          	mov    %eax,0x8(%esp)
 8048daf:	8b 45 f0             	mov    -0x10(%ebp),%eax
 8048db2:	89 44 24 04          	mov    %eax,0x4(%esp)
 8048db6:	8b 45 f4             	mov    -0xc(%ebp),%eax
 8048db9:	89 04 24             	mov    %eax,(%esp)
 8048dbc:	e8 73 f9 ff ff       	call   8048734 <mvwprintw@plt>
 8048dc1:	8b 45 ec             	mov    -0x14(%ebp),%eax
 8048dc4:	01 c0                	add    %eax,%eax
 8048dc6:	83 c0 01             	add    $0x1,%eax
 8048dc9:	c7 44 24 0c 40 92 04 	movl   $0x8049240,0xc(%esp)
 8048dd0:	08 
 8048dd1:	89 44 24 08          	mov    %eax,0x8(%esp)
 8048dd5:	8b 45 f0             	mov    -0x10(%ebp),%eax
 8048dd8:	89 44 24 04          	mov    %eax,0x4(%esp)
 8048ddc:	8b 45 f4             	mov    -0xc(%ebp),%eax
 8048ddf:	89 04 24             	mov    %eax,(%esp)
 8048de2:	e8 4d f9 ff ff       	call   8048734 <mvwprintw@plt>
 8048de7:	83 45 ec 01          	addl   $0x1,-0x14(%ebp)
 8048deb:	83 7d ec 0f          	cmpl   $0xf,-0x14(%ebp)
 8048def:	0f 8e 6e ff ff ff    	jle    8048d63 <new_window_at+0x43>
 8048df5:	83 45 f0 01          	addl   $0x1,-0x10(%ebp)
 8048df9:	83 7d f0 17          	cmpl   $0x17,-0x10(%ebp)
 8048dfd:	0f 8e 54 ff ff ff    	jle    8048d57 <new_window_at+0x37>
 8048e03:	8b 45 f4             	mov    -0xc(%ebp),%eax
 8048e06:	c9                   	leave  
 8048e07:	c3                   	ret    

08048e08 <move_pos>:
 8048e08:	55                   	push   %ebp
 8048e09:	89 e5                	mov    %esp,%ebp
 8048e0b:	8b 45 08             	mov    0x8(%ebp),%eax
 8048e0e:	3d 04 01 00 00       	cmp    $0x104,%eax
 8048e13:	74 10                	je     8048e25 <move_pos+0x1d>
 8048e15:	3d 05 01 00 00       	cmp    $0x105,%eax
 8048e1a:	74 15                	je     8048e31 <move_pos+0x29>
 8048e1c:	3d 02 01 00 00       	cmp    $0x102,%eax
 8048e21:	74 1a                	je     8048e3d <move_pos+0x35>
 8048e23:	eb 22                	jmp    8048e47 <move_pos+0x3f>
 8048e25:	c7 05 38 b7 04 08 01 	movl   $0x1,0x804b738
 8048e2c:	00 00 00 
 8048e2f:	eb 16                	jmp    8048e47 <move_pos+0x3f>
 8048e31:	c7 05 38 b7 04 08 02 	movl   $0x2,0x804b738
 8048e38:	00 00 00 
 8048e3b:	eb 0a                	jmp    8048e47 <move_pos+0x3f>
 8048e3d:	c7 05 38 b7 04 08 03 	movl   $0x3,0x804b738
 8048e44:	00 00 00 
 8048e47:	5d                   	pop    %ebp
 8048e48:	c3                   	ret    

08048e49 <main>:
 8048e49:	55                   	push   %ebp
 8048e4a:	89 e5                	mov    %esp,%ebp
 8048e4c:	83 e4 f0             	and    $0xfffffff0,%esp
 8048e4f:	83 ec 30             	sub    $0x30,%esp
 8048e52:	c7 44 24 2c 00 00 00 	movl   $0x0,0x2c(%esp)
 8048e59:	00 
 8048e5a:	e8 a5 f8 ff ff       	call   8048704 <initscr@plt>
 8048e5f:	a1 40 b7 04 08       	mov    0x804b740,%eax
 8048e64:	c7 44 24 04 01 00 00 	movl   $0x1,0x4(%esp)
 8048e6b:	00 
 8048e6c:	89 04 24             	mov    %eax,(%esp)
 8048e6f:	e8 60 f8 ff ff       	call   80486d4 <nodelay@plt>
 8048e74:	e8 cb f8 ff ff       	call   8048744 <cbreak@plt>
 8048e79:	e8 16 f9 ff ff       	call   8048794 <noecho@plt>
 8048e7e:	a1 40 b7 04 08       	mov    0x804b740,%eax
 8048e83:	c7 44 24 04 01 00 00 	movl   $0x1,0x4(%esp)
 8048e8a:	00 
 8048e8b:	89 04 24             	mov    %eax,(%esp)
 8048e8e:	e8 11 f8 ff ff       	call   80486a4 <keypad@plt>
 8048e93:	e8 ec f8 ff ff       	call   8048784 <has_colors@plt>
 8048e98:	83 f0 01             	xor    $0x1,%eax
 8048e9b:	84 c0                	test   %al,%al
 8048e9d:	74 37                	je     8048ed6 <main+0x8d>
 8048e9f:	e8 20 f8 ff ff       	call   80486c4 <endwin@plt>
 8048ea4:	a1 44 b7 04 08       	mov    0x804b744,%eax
 8048ea9:	89 c2                	mov    %eax,%edx
 8048eab:	b8 42 92 04 08       	mov    $0x8049242,%eax
 8048eb0:	89 54 24 0c          	mov    %edx,0xc(%esp)
 8048eb4:	c7 44 24 08 12 00 00 	movl   $0x12,0x8(%esp)
 8048ebb:	00 
 8048ebc:	c7 44 24 04 01 00 00 	movl   $0x1,0x4(%esp)
 8048ec3:	00 
 8048ec4:	89 04 24             	mov    %eax,(%esp)
 8048ec7:	e8 a8 f8 ff ff       	call   8048774 <fwrite@plt>
 8048ecc:	b8 ff ff ff ff       	mov    $0xffffffff,%eax
 8048ed1:	e9 11 02 00 00       	jmp    80490e7 <main+0x29e>
 8048ed6:	e8 79 f8 ff ff       	call   8048754 <start_color@plt>
 8048edb:	c7 44 24 08 01 00 00 	movl   $0x1,0x8(%esp)
 8048ee2:	00 
 8048ee3:	c7 44 24 04 01 00 00 	movl   $0x1,0x4(%esp)
 8048eea:	00 
 8048eeb:	c7 04 24 01 00 00 00 	movl   $0x1,(%esp)
 8048ef2:	e8 2d f8 ff ff       	call   8048724 <init_pair@plt>
 8048ef7:	c7 44 24 08 06 00 00 	movl   $0x6,0x8(%esp)
 8048efe:	00 
 8048eff:	c7 44 24 04 06 00 00 	movl   $0x6,0x4(%esp)
 8048f06:	00 
 8048f07:	c7 04 24 02 00 00 00 	movl   $0x2,(%esp)
 8048f0e:	e8 11 f8 ff ff       	call   8048724 <init_pair@plt>
 8048f13:	c7 44 24 08 03 00 00 	movl   $0x3,0x8(%esp)
 8048f1a:	00 
 8048f1b:	c7 44 24 04 03 00 00 	movl   $0x3,0x4(%esp)
 8048f22:	00 
 8048f23:	c7 04 24 03 00 00 00 	movl   $0x3,(%esp)
 8048f2a:	e8 f5 f7 ff ff       	call   8048724 <init_pair@plt>
 8048f2f:	c7 44 24 08 04 00 00 	movl   $0x4,0x8(%esp)
 8048f36:	00 
 8048f37:	c7 44 24 04 04 00 00 	movl   $0x4,0x4(%esp)
 8048f3e:	00 
 8048f3f:	c7 04 24 04 00 00 00 	movl   $0x4,(%esp)
 8048f46:	e8 d9 f7 ff ff       	call   8048724 <init_pair@plt>
 8048f4b:	c7 44 24 08 05 00 00 	movl   $0x5,0x8(%esp)
 8048f52:	00 
 8048f53:	c7 44 24 04 05 00 00 	movl   $0x5,0x4(%esp)
 8048f5a:	00 
 8048f5b:	c7 04 24 05 00 00 00 	movl   $0x5,(%esp)
 8048f62:	e8 bd f7 ff ff       	call   8048724 <init_pair@plt>
 8048f67:	c7 44 24 08 02 00 00 	movl   $0x2,0x8(%esp)
 8048f6e:	00 
 8048f6f:	c7 44 24 04 02 00 00 	movl   $0x2,0x4(%esp)
 8048f76:	00 
 8048f77:	c7 04 24 06 00 00 00 	movl   $0x6,(%esp)
 8048f7e:	e8 a1 f7 ff ff       	call   8048724 <init_pair@plt>
 8048f83:	c7 44 24 08 07 00 00 	movl   $0x7,0x8(%esp)
 8048f8a:	00 
 8048f8b:	c7 44 24 04 07 00 00 	movl   $0x7,0x4(%esp)
 8048f92:	00 
 8048f93:	c7 04 24 07 00 00 00 	movl   $0x7,(%esp)
 8048f9a:	e8 85 f7 ff ff       	call   8048724 <init_pair@plt>
 8048f9f:	a1 40 b7 04 08       	mov    0x804b740,%eax
 8048fa4:	85 c0                	test   %eax,%eax
 8048fa6:	74 0c                	je     8048fb4 <main+0x16b>
 8048fa8:	a1 40 b7 04 08       	mov    0x804b740,%eax
 8048fad:	c7 40 10 00 06 00 00 	movl   $0x600,0x10(%eax)
 8048fb4:	c7 44 24 2c 00 00 00 	movl   $0x0,0x2c(%esp)
 8048fbb:	00 
 8048fbc:	eb 34                	jmp    8048ff2 <main+0x1a9>
 8048fbe:	c7 44 24 28 00 00 00 	movl   $0x0,0x28(%esp)
 8048fc5:	00 
 8048fc6:	eb 1a                	jmp    8048fe2 <main+0x199>
 8048fc8:	a1 40 b7 04 08       	mov    0x804b740,%eax
 8048fcd:	c7 44 24 04 20 00 00 	movl   $0x20,0x4(%esp)
 8048fd4:	00 
 8048fd5:	89 04 24             	mov    %eax,(%esp)
 8048fd8:	e8 a7 f6 ff ff       	call   8048684 <waddch@plt>
 8048fdd:	83 44 24 28 01       	addl   $0x1,0x28(%esp)
 8048fe2:	a1 64 b7 04 08       	mov    0x804b764,%eax
 8048fe7:	39 44 24 28          	cmp    %eax,0x28(%esp)
 8048feb:	7c db                	jl     8048fc8 <main+0x17f>
 8048fed:	83 44 24 2c 01       	addl   $0x1,0x2c(%esp)
 8048ff2:	a1 60 b7 04 08       	mov    0x804b760,%eax
 8048ff7:	39 44 24 2c          	cmp    %eax,0x2c(%esp)
 8048ffb:	7c c1                	jl     8048fbe <main+0x175>
 8048ffd:	a1 40 b7 04 08       	mov    0x804b740,%eax
 8049002:	89 04 24             	mov    %eax,(%esp)
 8049005:	e8 0a f7 ff ff       	call   8048714 <wrefresh@plt>
 804900a:	c7 44 24 1c 01 00 00 	movl   $0x1,0x1c(%esp)
 8049011:	00 
 8049012:	c7 44 24 18 01 00 00 	movl   $0x1,0x18(%esp)
 8049019:	00 
 804901a:	c7 44 24 14 01 00 00 	movl   $0x1,0x14(%esp)
 8049021:	00 
 8049022:	c7 44 24 10 01 00 00 	movl   $0x1,0x10(%esp)
 8049029:	00 
 804902a:	c7 44 24 0c 01 00 00 	movl   $0x1,0xc(%esp)
 8049031:	00 
 8049032:	c7 44 24 08 01 00 00 	movl   $0x1,0x8(%esp)
 8049039:	00 
 804903a:	c7 44 24 04 01 00 00 	movl   $0x1,0x4(%esp)
 8049041:	00 
 8049042:	c7 04 24 04 00 00 00 	movl   $0x4,(%esp)
 8049049:	e8 26 f8 ff ff       	call   8048874 <put_a_block>
 804904e:	e8 01 f9 ff ff       	call   8048954 <put_a_block_on_table>
 8049053:	c7 44 24 20 02 01 00 	movl   $0x102,0x20(%esp)
 804905a:	00 
 804905b:	eb 72                	jmp    80490cf <main+0x286>
 804905d:	8b 44 24 20          	mov    0x20(%esp),%eax
 8049061:	89 04 24             	mov    %eax,(%esp)
 8049064:	e8 9f fd ff ff       	call   8048e08 <move_pos>
 8049069:	8b 44 24 24          	mov    0x24(%esp),%eax
 804906d:	89 04 24             	mov    %eax,(%esp)
 8049070:	e8 7f f6 ff ff       	call   80486f4 <delwin@plt>
 8049075:	c7 44 24 04 02 00 00 	movl   $0x2,0x4(%esp)
 804907c:	00 
 804907d:	c7 04 24 02 00 00 00 	movl   $0x2,(%esp)
 8049084:	e8 97 fc ff ff       	call   8048d20 <new_window_at>
 8049089:	89 44 24 24          	mov    %eax,0x24(%esp)
 804908d:	8b 44 24 24          	mov    0x24(%esp),%eax
 8049091:	89 04 24             	mov    %eax,(%esp)
 8049094:	e8 7b f6 ff ff       	call   8048714 <wrefresh@plt>
 8049099:	a1 64 b7 04 08       	mov    0x804b764,%eax
 804909e:	8d 48 ff             	lea    -0x1(%eax),%ecx
 80490a1:	a1 60 b7 04 08       	mov    0x804b760,%eax
 80490a6:	8d 50 ff             	lea    -0x1(%eax),%edx
 80490a9:	a1 40 b7 04 08       	mov    0x804b740,%eax
 80490ae:	89 4c 24 08          	mov    %ecx,0x8(%esp)
 80490b2:	89 54 24 04          	mov    %edx,0x4(%esp)
 80490b6:	89 04 24             	mov    %eax,(%esp)
 80490b9:	e8 d6 f5 ff ff       	call   8048694 <wmove@plt>
 80490be:	a1 40 b7 04 08       	mov    0x804b740,%eax
 80490c3:	89 04 24             	mov    %eax,(%esp)
 80490c6:	e8 99 f6 ff ff       	call   8048764 <wgetch@plt>
 80490cb:	89 44 24 20          	mov    %eax,0x20(%esp)
 80490cf:	83 7c 24 20 ff       	cmpl   $0xffffffff,0x20(%esp)
 80490d4:	74 07                	je     80490dd <main+0x294>
 80490d6:	83 7c 24 20 71       	cmpl   $0x71,0x20(%esp)
 80490db:	75 80                	jne    804905d <main+0x214>
 80490dd:	e8 e2 f5 ff ff       	call   80486c4 <endwin@plt>
 80490e2:	b8 00 00 00 00       	mov    $0x0,%eax
 80490e7:	c9                   	leave  
 80490e8:	c3                   	ret    

080490e9 <signal_callback_alarm>:
 80490e9:	55                   	push   %ebp
 80490ea:	89 e5                	mov    %esp,%ebp
 80490ec:	83 ec 18             	sub    $0x18,%esp
 80490ef:	e8 d0 fb ff ff       	call   8048cc4 <clear_a_block_on_table>
 80490f4:	a1 38 b7 04 08       	mov    0x804b738,%eax
 80490f9:	83 f8 01             	cmp    $0x1,%eax
 80490fc:	74 0a                	je     8049108 <signal_callback_alarm+0x1f>
 80490fe:	a1 38 b7 04 08       	mov    0x804b738,%eax
 8049103:	83 f8 02             	cmp    $0x2,%eax
 8049106:	75 0f                	jne    8049117 <signal_callback_alarm+0x2e>
 8049108:	a1 38 b7 04 08       	mov    0x804b738,%eax
 804910d:	89 04 24             	mov    %eax,(%esp)
 8049110:	e8 4b fa ff ff       	call   8048b60 <move_to_left_or_right>
 8049115:	eb 14                	jmp    804912b <signal_callback_alarm+0x42>
 8049117:	a1 38 b7 04 08       	mov    0x804b738,%eax
 804911c:	83 f8 03             	cmp    $0x3,%eax
 804911f:	75 0a                	jne    804912b <signal_callback_alarm+0x42>
 8049121:	e8 f6 f9 ff ff       	call   8048b1c <down>
 8049126:	a3 3c b7 04 08       	mov    %eax,0x804b73c
 804912b:	e8 24 f8 ff ff       	call   8048954 <put_a_block_on_table>
 8049130:	c9                   	leave  
 8049131:	c3                   	ret    

08049132 <game_over>:
 8049132:	55                   	push   %ebp
 8049133:	89 e5                	mov    %esp,%ebp
 8049135:	83 ec 18             	sub    $0x18,%esp
 8049138:	e8 87 f5 ff ff       	call   80486c4 <endwin@plt>
 804913d:	a1 44 b7 04 08       	mov    0x804b744,%eax
 8049142:	89 c2                	mov    %eax,%edx
 8049144:	b8 55 92 04 08       	mov    $0x8049255,%eax
 8049149:	89 54 24 0c          	mov    %edx,0xc(%esp)
 804914d:	c7 44 24 08 0b 00 00 	movl   $0xb,0x8(%esp)
 8049154:	00 
 8049155:	c7 44 24 04 01 00 00 	movl   $0x1,0x4(%esp)
 804915c:	00 
 804915d:	89 04 24             	mov    %eax,(%esp)
 8049160:	e8 0f f6 ff ff       	call   8048774 <fwrite@plt>
 8049165:	c7 04 24 01 00 00 00 	movl   $0x1,(%esp)
 804916c:	e8 33 f6 ff ff       	call   80487a4 <exit@plt>

08049171 <generate_a_random_num>:
 8049171:	55                   	push   %ebp
 8049172:	89 e5                	mov    %esp,%ebp
 8049174:	5d                   	pop    %ebp
 8049175:	c3                   	ret    
 8049176:	90                   	nop
 8049177:	90                   	nop
 8049178:	90                   	nop
 8049179:	90                   	nop
 804917a:	90                   	nop
 804917b:	90                   	nop
 804917c:	90                   	nop
 804917d:	90                   	nop
 804917e:	90                   	nop
 804917f:	90                   	nop

08049180 <__libc_csu_fini>:
 8049180:	55                   	push   %ebp
 8049181:	89 e5                	mov    %esp,%ebp
 8049183:	5d                   	pop    %ebp
 8049184:	c3                   	ret    
 8049185:	8d 74 26 00          	lea    0x0(%esi,%eiz,1),%esi
 8049189:	8d bc 27 00 00 00 00 	lea    0x0(%edi,%eiz,1),%edi

08049190 <__libc_csu_init>:
 8049190:	55                   	push   %ebp
 8049191:	89 e5                	mov    %esp,%ebp
 8049193:	57                   	push   %edi
 8049194:	56                   	push   %esi
 8049195:	53                   	push   %ebx
 8049196:	e8 4f 00 00 00       	call   80491ea <__i686.get_pc_thunk.bx>
 804919b:	81 c3 59 1e 00 00    	add    $0x1e59,%ebx
 80491a1:	83 ec 1c             	sub    $0x1c,%esp
 80491a4:	e8 8b f4 ff ff       	call   8048634 <_init>
 80491a9:	8d bb 18 ff ff ff    	lea    -0xe8(%ebx),%edi
 80491af:	8d 83 18 ff ff ff    	lea    -0xe8(%ebx),%eax
 80491b5:	29 c7                	sub    %eax,%edi
 80491b7:	c1 ff 02             	sar    $0x2,%edi
 80491ba:	85 ff                	test   %edi,%edi
 80491bc:	74 24                	je     80491e2 <__libc_csu_init+0x52>
 80491be:	31 f6                	xor    %esi,%esi
 80491c0:	8b 45 10             	mov    0x10(%ebp),%eax
 80491c3:	89 44 24 08          	mov    %eax,0x8(%esp)
 80491c7:	8b 45 0c             	mov    0xc(%ebp),%eax
 80491ca:	89 44 24 04          	mov    %eax,0x4(%esp)
 80491ce:	8b 45 08             	mov    0x8(%ebp),%eax
 80491d1:	89 04 24             	mov    %eax,(%esp)
 80491d4:	ff 94 b3 18 ff ff ff 	call   *-0xe8(%ebx,%esi,4)
 80491db:	83 c6 01             	add    $0x1,%esi
 80491de:	39 fe                	cmp    %edi,%esi
 80491e0:	72 de                	jb     80491c0 <__libc_csu_init+0x30>
 80491e2:	83 c4 1c             	add    $0x1c,%esp
 80491e5:	5b                   	pop    %ebx
 80491e6:	5e                   	pop    %esi
 80491e7:	5f                   	pop    %edi
 80491e8:	5d                   	pop    %ebp
 80491e9:	c3                   	ret    

080491ea <__i686.get_pc_thunk.bx>:
 80491ea:	8b 1c 24             	mov    (%esp),%ebx
 80491ed:	c3                   	ret    
 80491ee:	90                   	nop
 80491ef:	90                   	nop

080491f0 <__do_global_ctors_aux>:
 80491f0:	55                   	push   %ebp
 80491f1:	89 e5                	mov    %esp,%ebp
 80491f3:	53                   	push   %ebx
 80491f4:	83 ec 04             	sub    $0x4,%esp
 80491f7:	a1 0c af 04 08       	mov    0x804af0c,%eax
 80491fc:	83 f8 ff             	cmp    $0xffffffff,%eax
 80491ff:	74 13                	je     8049214 <__do_global_ctors_aux+0x24>
 8049201:	bb 0c af 04 08       	mov    $0x804af0c,%ebx
 8049206:	66 90                	xchg   %ax,%ax
 8049208:	83 eb 04             	sub    $0x4,%ebx
 804920b:	ff d0                	call   *%eax
 804920d:	8b 03                	mov    (%ebx),%eax
 804920f:	83 f8 ff             	cmp    $0xffffffff,%eax
 8049212:	75 f4                	jne    8049208 <__do_global_ctors_aux+0x18>
 8049214:	83 c4 04             	add    $0x4,%esp
 8049217:	5b                   	pop    %ebx
 8049218:	5d                   	pop    %ebp
 8049219:	c3                   	ret    
 804921a:	90                   	nop
 804921b:	90                   	nop

Disassembly of section .fini:

0804921c <_fini>:
 804921c:	55                   	push   %ebp
 804921d:	89 e5                	mov    %esp,%ebp
 804921f:	53                   	push   %ebx
 8049220:	83 ec 04             	sub    $0x4,%esp
 8049223:	e8 00 00 00 00       	call   8049228 <_fini+0xc>
 8049228:	5b                   	pop    %ebx
 8049229:	81 c3 cc 1d 00 00    	add    $0x1dcc,%ebx
 804922f:	e8 bc f5 ff ff       	call   80487f0 <__do_global_dtors_aux>
 8049234:	59                   	pop    %ecx
 8049235:	5b                   	pop    %ebx
 8049236:	c9                   	leave  
 8049237:	c3                   	ret    
